target datalayout = "e-m:e-p270:32:32-p271:32:32-p272:64:64-i64:64-i128:128-f80:128-n8:16:32:64-S128"
target triple = "x86_64-pc-linux-gnu"

%struct.nstime_t = type { i64, i32 }
%struct._address = type { i32, i32, ptr, ptr }
%struct._fc_hdr = type { %struct._address, %struct._address, i32, i8, i16, i16, i16, i8, i8, i16, ptr, i32 }
%struct._fc_exchange_t = type { i32, i32, %struct.nstime_t }
%struct._srt_data_t = type { ptr, ptr }
%struct._GArray = type { ptr, i32 }

; Function Attrs: nounwind uwtable
define internal i32 @fcstat_packet(ptr noundef %0, ptr noundef %1, ptr noundef %2, ptr noundef %3, i32 noundef %4) #0 {
  %6 = alloca i32, align 4
  %7 = alloca ptr, align 8
  %8 = alloca ptr, align 8
  %9 = alloca ptr, align 8
  %10 = alloca ptr, align 8
  %11 = alloca i32, align 4
  %12 = alloca i32, align 4
  %13 = alloca ptr, align 8
  %14 = alloca ptr, align 8
  %15 = alloca ptr, align 8
  store ptr %0, ptr %7, align 8
  store ptr %1, ptr %8, align 8
  store ptr %2, ptr %9, align 8
  store ptr %3, ptr %10, align 8
  store i32 %4, ptr %11, align 4
  store i32 0, ptr %12, align 4
  %16 = load ptr, ptr %7, align 8
  store ptr %16, ptr %14, align 8
  %17 = load ptr, ptr %10, align 8
  store ptr %17, ptr %15, align 8
  %18 = load ptr, ptr %15, align 8
  %19 = getelementptr inbounds %struct._fc_hdr, ptr %18, i32 0, i32 2
  %20 = load i32, ptr %19, align 8
  %21 = and i32 %20, 8388608
  %22 = icmp ne i32 %21, 0
  br i1 %22, label %24, label %23

23:                                               ; preds = %5
  store i32 0, ptr %6, align 4
  br label %57

24:                                               ; preds = %5
  %25 = load ptr, ptr %15, align 8
  %26 = getelementptr inbounds %struct._fc_hdr, ptr %25, i32 0, i32 10
  %27 = load ptr, ptr %26, align 8
  %28 = icmp ne ptr %27, null
  br i1 %28, label %29, label %36

29:                                               ; preds = %24
  %30 = load ptr, ptr %15, align 8
  %31 = getelementptr inbounds %struct._fc_hdr, ptr %30, i32 0, i32 10
  %32 = load ptr, ptr %31, align 8
  %33 = getelementptr inbounds %struct._fc_exchange_t, ptr %32, i32 0, i32 0
  %34 = load i32, ptr %33, align 8
  %35 = icmp eq i32 %34, 0
  br i1 %35, label %36, label %37

36:                                               ; preds = %29, %24
  store i32 0, ptr %6, align 4
  br label %57

37:                                               ; preds = %29
  %38 = load ptr, ptr %14, align 8
  %39 = getelementptr inbounds %struct._srt_data_t, ptr %38, i32 0, i32 0
  %40 = load ptr, ptr %39, align 8
  %41 = getelementptr inbounds %struct._GArray, ptr %40, i32 0, i32 0
  %42 = load ptr, ptr %41, align 8
  %43 = load i32, ptr %12, align 4
  %44 = zext i32 %43 to i64
  %45 = getelementptr ptr, ptr %42, i64 %44
  %46 = load ptr, ptr %45, align 8
  store ptr %46, ptr %13, align 8
  %47 = load ptr, ptr %13, align 8
  %48 = load ptr, ptr %15, align 8
  %49 = getelementptr inbounds %struct._fc_hdr, ptr %48, i32 0, i32 3
  %50 = load i8, ptr %49, align 4
  %51 = zext i8 %50 to i32
  %52 = load ptr, ptr %15, align 8
  %53 = getelementptr inbounds %struct._fc_hdr, ptr %52, i32 0, i32 10
  %54 = load ptr, ptr %53, align 8
  %55 = getelementptr inbounds %struct._fc_exchange_t, ptr %54, i32 0, i32 2
  %56 = load ptr, ptr %8, align 8
  call void @add_srt_table_data(ptr noundef %47, i32 noundef %51, ptr noundef %55, ptr noundef %56)
  store i32 1, ptr %6, align 4
  br label %57

57:                                               ; preds = %37, %36, %23
  %58 = load i32, ptr %6, align 4
  ret i32 %58
}