; Function Attrs: nounwind uwtable
define internal range(i32 0, 2) i32 @fcstat_packet(ptr noundef readonly captures(none) %0, ptr noundef %1, ptr readnone captures(none) %2, ptr noundef readonly captures(none) %3, i32 %4) #0 {
  %6 = getelementptr inbounds nuw i8, ptr %3, i64 48
  %7 = load i32, ptr %6, align 8
  %8 = and i32 %7, 8388608
  %.not = icmp eq i32 %8, 0
  br i1 %.not, label %23, label %9

9:                                                ; preds = %5
  %10 = getelementptr inbounds nuw i8, ptr %3, i64 64
  %11 = load ptr, ptr %10, align 8
  %.not12 = icmp eq ptr %11, null
  br i1 %.not12, label %23, label %12

12:                                               ; preds = %9
  %13 = load i32, ptr %11, align 8
  %14 = icmp eq i32 %13, 0
  br i1 %14, label %23, label %15

15:                                               ; preds = %12
  %16 = load ptr, ptr %0, align 8
  %17 = load ptr, ptr %16, align 8
  %18 = load ptr, ptr %17, align 8
  %19 = getelementptr inbounds nuw i8, ptr %3, i64 52
  %20 = load i8, ptr %19, align 4
  %21 = zext i8 %20 to i32
  %22 = getelementptr inbounds nuw i8, ptr %11, i64 8
  tail call void @add_srt_table_data(ptr noundef %18, i32 noundef %21, ptr noundef nonnull %22, ptr noundef %1) #4
  br label %23

23:                                               ; preds = %9, %12, %5, %15
  %.0 = phi i32 [ 1, %15 ], [ 0, %5 ], [ 0, %12 ], [ 0, %9 ]
  ret i32 %.0
}